; Function Attrs: null_pointer_is_valid sspstrong uwtable
define hidden void @ua_keysets_dump() local_unnamed_addr #1 {
  %1 = load i32, ptr @g_num_keysets, align 4
  %2 = tail call i32 (i32, ptr, ...) @__printf_chk(i32 noundef 2, ptr noundef nonnull @.str, i32 noundef %1)
  %3 = load i32, ptr @g_num_keysets, align 4
  %.not = icmp eq i32 %3, 0
  br i1 %.not, label %._crit_edge, label %.lr.ph

.lr.ph:                                           ; preds = %0, %print_hex.exit42
  %indvars.iv = phi i64 [ %indvars.iv.next, %print_hex.exit42 ], [ 0, %0 ]
  %4 = load ptr, ptr @g_keysets, align 8
  %5 = getelementptr %struct.ua_keyset, ptr %4, i64 %indvars.iv
  %6 = load i64, ptr %5, align 8
  %7 = lshr i64 %6, 32
  %8 = trunc nuw i64 %7 to i32
  %9 = trunc i64 %6 to i32
  %10 = trunc nuw i64 %indvars.iv to i32
  %11 = tail call i32 (i32, ptr, ...) @__printf_chk(i32 noundef 2, ptr noundef nonnull @.str.1, i32 noundef %10, i64 noundef %6, i32 noundef %8, i32 noundef %9)
  %12 = tail call i32 (i32, ptr, ...) @__printf_chk(i32 noundef 2, ptr noundef nonnull @.str.2, i32 noundef %10)
  %13 = getelementptr inbounds nuw i8, ptr %5, i64 8
  br label %.lr.ph.i

.lr.ph.i:                                         ; preds = %.lr.ph.i, %.lr.ph
  %indvars.iv.i = phi i64 [ 0, %.lr.ph ], [ %indvars.iv.next.i, %.lr.ph.i ]
  %14 = getelementptr i8, ptr %13, i64 %indvars.iv.i
  %15 = load i8, ptr %14, align 1
  %16 = zext i8 %15 to i32
  %17 = tail call i32 (i32, ptr, ...) @__printf_chk(i32 noundef 2, ptr noundef nonnull @.str.8, i32 noundef %16)
  %indvars.iv.next.i = add nuw nsw i64 %indvars.iv.i, 1
  %exitcond.not.i = icmp eq i64 %indvars.iv.next.i, 16
  br i1 %exitcond.not.i, label %print_hex.exit, label %.lr.ph.i, !llvm.loop !8

print_hex.exit:                                   ; preds = %.lr.ph.i
  %18 = tail call i32 (i32, ptr, ...) @__printf_chk(i32 noundef 2, ptr noundef nonnull @.str.9)
  %19 = getelementptr inbounds nuw i8, ptr %5, i64 104
  %20 = load i32, ptr %19, align 8
  %21 = tail call i32 (i32, ptr, ...) @__printf_chk(i32 noundef 2, ptr noundef nonnull @.str.3, i32 noundef %10, i32 noundef %20)
  %22 = getelementptr inbounds nuw i8, ptr %5, i64 40
  %23 = load i32, ptr %19, align 8
  %.not.i = icmp eq i32 %23, 0
  br i1 %.not.i, label %print_hex.exit28, label %.lr.ph.preheader.i

.lr.ph.preheader.i:                               ; preds = %print_hex.exit
  %wide.trip.count.i = zext i32 %23 to i64
  br label %.lr.ph.i24

.lr.ph.i24:                                       ; preds = %.lr.ph.i24, %.lr.ph.preheader.i
  %indvars.iv.i25 = phi i64 [ 0, %.lr.ph.preheader.i ], [ %indvars.iv.next.i26, %.lr.ph.i24 ]
  %24 = getelementptr i8, ptr %22, i64 %indvars.iv.i25
  %25 = load i8, ptr %24, align 1
  %26 = zext i8 %25 to i32
  %27 = tail call i32 (i32, ptr, ...) @__printf_chk(i32 noundef 2, ptr noundef nonnull @.str.8, i32 noundef %26)
  %indvars.iv.next.i26 = add nuw nsw i64 %indvars.iv.i25, 1
  %exitcond.not.i27 = icmp eq i64 %indvars.iv.next.i26, %wide.trip.count.i
  br i1 %exitcond.not.i27, label %print_hex.exit28, label %.lr.ph.i24, !llvm.loop !8

print_hex.exit28:                                 ; preds = %.lr.ph.i24, %print_hex.exit
  %28 = tail call i32 (i32, ptr, ...) @__printf_chk(i32 noundef 2, ptr noundef nonnull @.str.9)
  %29 = getelementptr inbounds nuw i8, ptr %5, i64 112
  %30 = load i32, ptr %29, align 8
  %31 = tail call i32 (i32, ptr, ...) @__printf_chk(i32 noundef 2, ptr noundef nonnull @.str.4, i32 noundef %10, i32 noundef %30)
  %32 = tail call i32 (i32, ptr, ...) @__printf_chk(i32 noundef 2, ptr noundef nonnull @.str.5, i32 noundef %10)
  %33 = getelementptr inbounds nuw i8, ptr %5, i64 24
  br label %.lr.ph.i30

.lr.ph.i30:                                       ; preds = %.lr.ph.i30, %print_hex.exit28
  %indvars.iv.i31 = phi i64 [ 0, %print_hex.exit28 ], [ %indvars.iv.next.i32, %.lr.ph.i30 ]
  %34 = getelementptr i8, ptr %33, i64 %indvars.iv.i31
  %35 = load i8, ptr %34, align 1
  %36 = zext i8 %35 to i32
  %37 = tail call i32 (i32, ptr, ...) @__printf_chk(i32 noundef 2, ptr noundef nonnull @.str.8, i32 noundef %36)
  %indvars.iv.next.i32 = add nuw nsw i64 %indvars.iv.i31, 1
  %exitcond.not.i33 = icmp eq i64 %indvars.iv.next.i32, 16
  br i1 %exitcond.not.i33, label %print_hex.exit34, label %.lr.ph.i30, !llvm.loop !8

print_hex.exit34:                                 ; preds = %.lr.ph.i30
  %38 = tail call i32 (i32, ptr, ...) @__printf_chk(i32 noundef 2, ptr noundef nonnull @.str.9)
  %39 = getelementptr inbounds nuw i8, ptr %5, i64 108
  %40 = load i32, ptr %39, align 4
  %41 = tail call i32 (i32, ptr, ...) @__printf_chk(i32 noundef 2, ptr noundef nonnull @.str.6, i32 noundef %10, i32 noundef %40)
  %42 = getelementptr inbounds nuw i8, ptr %5, i64 72
  %43 = load i32, ptr %39, align 4
  %.not.i35 = icmp eq i32 %43, 0
  br i1 %.not.i35, label %print_hex.exit42, label %.lr.ph.preheader.i36

.lr.ph.preheader.i36:                             ; preds = %print_hex.exit34
  %wide.trip.count.i37 = zext i32 %43 to i64
  br label %.lr.ph.i38

.lr.ph.i38:                                       ; preds = %.lr.ph.i38, %.lr.ph.preheader.i36
  %indvars.iv.i39 = phi i64 [ 0, %.lr.ph.preheader.i36 ], [ %indvars.iv.next.i40, %.lr.ph.i38 ]
  %44 = getelementptr i8, ptr %42, i64 %indvars.iv.i39
  %45 = load i8, ptr %44, align 1
  %46 = zext i8 %45 to i32
  %47 = tail call i32 (i32, ptr, ...) @__printf_chk(i32 noundef 2, ptr noundef nonnull @.str.8, i32 noundef %46)
  %indvars.iv.next.i40 = add nuw nsw i64 %indvars.iv.i39, 1
  %exitcond.not.i41 = icmp eq i64 %indvars.iv.next.i40, %wide.trip.count.i37
  br i1 %exitcond.not.i41, label %print_hex.exit42, label %.lr.ph.i38, !llvm.loop !8

print_hex.exit42:                                 ; preds = %.lr.ph.i38, %print_hex.exit34
  %48 = tail call i32 (i32, ptr, ...) @__printf_chk(i32 noundef 2, ptr noundef nonnull @.str.9)
  %49 = getelementptr inbounds nuw i8, ptr %5, i64 116
  %50 = load i32, ptr %49, align 4
  %51 = tail call i32 (i32, ptr, ...) @__printf_chk(i32 noundef 2, ptr noundef nonnull @.str.7, i32 noundef %10, i32 noundef %50)
  %indvars.iv.next = add nuw nsw i64 %indvars.iv, 1
  %52 = load i32, ptr @g_num_keysets, align 4
  %53 = zext i32 %52 to i64
  %54 = icmp samesign ult i64 %indvars.iv.next, %53
  br i1 %54, label %.lr.ph, label %._crit_edge, !llvm.loop !9

._crit_edge:                                      ; preds = %print_hex.exit42, %0
  ret void
}